target datalayout = "e-m:e-p270:32:32-p271:32:32-p272:64:64-i64:64-i128:128-f80:128-n8:16:32:64-S128"
target triple = "x86_64-pc-linux-gnu"

%struct._lzma_state = type { ptr, ptr, ptr, ptr }
%struct.lzma_options_delta = type { i32, i32, i32, i32, i32, i32, ptr, ptr }

@PyExc_ValueError = external global ptr, align 8
@parse_filter_spec_delta.optnames = internal global [3 x ptr] [ptr @.str.6, ptr @.str.24, ptr null], align 16
@.str.25 = private unnamed_addr constant [5 x i8] c"|OO&\00", align 1
@.str.26 = private unnamed_addr constant [42 x i8] c"Invalid filter specifier for delta filter\00", align 1

; Function Attrs: nounwind uwtable
define internal ptr @parse_filter_spec_delta(ptr noundef %0, ptr noundef %1) #0 {
  %3 = alloca ptr, align 8
  %4 = alloca ptr, align 8
  %5 = alloca ptr, align 8
  %6 = alloca ptr, align 8
  %7 = alloca i32, align 4
  %8 = alloca ptr, align 8
  %9 = alloca i32, align 4
  store ptr %0, ptr %4, align 8, !tbaa !8
  store ptr %1, ptr %5, align 8, !tbaa !3
  call void @llvm.lifetime.start.p0(i64 8, ptr %6) #9
  call void @llvm.lifetime.start.p0(i64 4, ptr %7) #9
  store i32 1, ptr %7, align 4, !tbaa !12
  call void @llvm.lifetime.start.p0(i64 8, ptr %8) #9
  %10 = load ptr, ptr %4, align 8, !tbaa !8
  %11 = getelementptr inbounds nuw %struct._lzma_state, ptr %10, i32 0, i32 3
  %12 = load ptr, ptr %11, align 8, !tbaa !16
  %13 = load ptr, ptr %5, align 8, !tbaa !3
  %14 = call i32 (ptr, ptr, ptr, ptr, ...) @PyArg_ParseTupleAndKeywords(ptr noundef %12, ptr noundef %13, ptr noundef @.str.25, ptr noundef @parse_filter_spec_delta.optnames, ptr noundef %6, ptr noundef @uint32_converter, ptr noundef %7)
  %15 = icmp ne i32 %14, 0
  br i1 %15, label %18, label %16

16:                                               ; preds = %2
  %17 = load ptr, ptr @PyExc_ValueError, align 8, !tbaa !3
  call void @PyErr_SetString(ptr noundef %17, ptr noundef @.str.26)
  store ptr null, ptr %3, align 8
  store i32 1, ptr %9, align 4
  br label %31

18:                                               ; preds = %2
  %19 = call ptr @PyMem_Calloc(i64 noundef 1, i64 noundef 40)
  store ptr %19, ptr %8, align 8, !tbaa !8
  %20 = load ptr, ptr %8, align 8, !tbaa !8
  %21 = icmp eq ptr %20, null
  br i1 %21, label %22, label %24

22:                                               ; preds = %18
  %23 = call ptr @PyErr_NoMemory()
  store ptr %23, ptr %3, align 8
  store i32 1, ptr %9, align 4
  br label %31

24:                                               ; preds = %18
  %25 = load ptr, ptr %8, align 8, !tbaa !8
  %26 = getelementptr inbounds nuw %struct.lzma_options_delta, ptr %25, i32 0, i32 0
  store i32 0, ptr %26, align 8, !tbaa !32
  %27 = load i32, ptr %7, align 4, !tbaa !12
  %28 = load ptr, ptr %8, align 8, !tbaa !8
  %29 = getelementptr inbounds nuw %struct.lzma_options_delta, ptr %28, i32 0, i32 1
  store i32 %27, ptr %29, align 4, !tbaa !34
  %30 = load ptr, ptr %8, align 8, !tbaa !8
  store ptr %30, ptr %3, align 8
  store i32 1, ptr %9, align 4
  br label %31

31:                                               ; preds = %24, %22, %16
  call void @llvm.lifetime.end.p0(i64 8, ptr %8) #9
  call void @llvm.lifetime.end.p0(i64 4, ptr %7) #9
  call void @llvm.lifetime.end.p0(i64 8, ptr %6) #9
  %32 = load ptr, ptr %3, align 8
  ret ptr %32
}