; Function Attrs: nounwind uwtable
define internal fastcc ptr @parse_filter_spec_delta(ptr %.24.val, ptr noundef %0) unnamed_addr #0 {
  %2 = alloca ptr, align 8
  %3 = alloca i32, align 4
  call void @llvm.lifetime.start.p0(i64 8, ptr nonnull %2) #10
  call void @llvm.lifetime.start.p0(i64 4, ptr nonnull %3) #10
  store i32 1, ptr %3, align 4, !tbaa !19
  %4 = call i32 (ptr, ptr, ptr, ptr, ...) @PyArg_ParseTupleAndKeywords(ptr noundef %.24.val, ptr noundef %0, ptr noundef nonnull @.str.25, ptr noundef nonnull @parse_filter_spec_delta.optnames, ptr noundef nonnull %2, ptr noundef nonnull @uint32_converter, ptr noundef nonnull %3) #10
  %.not = icmp eq i32 %4, 0
  br i1 %.not, label %5, label %7

5:                                                ; preds = %1
  %6 = load ptr, ptr @PyExc_ValueError, align 8, !tbaa !15
  call void @PyErr_SetString(ptr noundef %6, ptr noundef nonnull @.str.26) #10
  br label %15

7:                                                ; preds = %1
  %8 = call ptr @PyMem_Calloc(i64 noundef 1, i64 noundef 40) #10
  %9 = icmp eq ptr %8, null
  br i1 %9, label %10, label %12

10:                                               ; preds = %7
  %11 = call ptr @PyErr_NoMemory() #10
  br label %15

12:                                               ; preds = %7
  store i32 0, ptr %8, align 8, !tbaa !37
  %13 = load i32, ptr %3, align 4, !tbaa !19
  %14 = getelementptr inbounds nuw i8, ptr %8, i64 4
  store i32 %13, ptr %14, align 4, !tbaa !32
  br label %15

15:                                               ; preds = %12, %10, %5
  %.0 = phi ptr [ %11, %10 ], [ %8, %12 ], [ null, %5 ]
  call void @llvm.lifetime.end.p0(i64 4, ptr nonnull %3) #10
  call void @llvm.lifetime.end.p0(i64 8, ptr nonnull %2) #10
  ret ptr %.0
}